


ARM Macro Assembler    Page 1 


    1 00000000         ; generated by Component: ARM Compiler 5.06 update 6 (bu
                       ild 750) Tool: ArmCC [4d3637]
    2 00000000         ; commandline ArmCC [--c99 --split_sections --debug -c -
                       S -o.\output\nrf_delay.s --depend=.\output\nrf_delay.d -
                       -cpu=Cortex-M4.fp.sp --apcs=interwork -O0 --diag_suppres
                       s=9931 -I.\APP -I.\BLE\ble_advertising -I.\BLE\ble_servi
                       ces\ble_dis -I.\BLE\ble_services\ble_nus -I.\BLE\common 
                       -I.\Doc -I.\Drivers\bsp -I.\Drivers\common -I.\Drivers\c
                       onfig -I.\Drivers\delay -I.\Drivers\flash -I.\Drivers\ha
                       l -I.\Drivers\ppi -I.\Drivers\pstorage\config -I.\Driver
                       s\pstorage -I.\Drivers\RTE -I.\Drivers\saadc -I.\Drivers
                       \segger_rtt -I.\Drivers\timer -I.\Drivers\uart -I.\Libra
                       ries\fifo -I.\Libraries\fstorage -I.\Libraries\gpiote -I
                       .\Libraries\pwm -I.\Libraries\timer -I.\Libraries\uart -
                       I.\Libraries\util -I.\RTE\Device\nRF52832_xxAA -I.\softd
                       evice\common\softdevice_handler -I.\softdevice\s132\head
                       ers -I.\Libraries\experimental_section_vars -I.\Librarie
                       s\fstorage\config -I.\Drivers\bsp -I.\Drivers\Bluetooth 
                       -I.\Drivers\simuart -I.\Drivers\wifi -I.\Drivers\wdt -I.
                       \RSA -I.\RTE\_WIFI -IC:\Users\Administrator\AppData\Loca
                       l\Arm\Packs\ARM\CMSIS\5.6.0\CMSIS\Core\Include -IC:\User
                       s\Administrator\AppData\Local\Arm\Packs\NordicSemiconduc
                       tor\nRF_DeviceFamilyPack\8.5.0\Device\Include -D__MICROL
                       IB -D__UVISION_VERSION=529 -D_RTE_ -DNRF52 -DBLE_STACK_S
                       UPPORT_REQD -DBOARD_PCA10040 -DNRF52_PAN_12 -DNRF52_PAN_
                       15 -DNRF52_PAN_20 -DNRF52_PAN_30 -DNRF52_PAN_31 -DNRF52_
                       PAN_36 -DNRF52_PAN_51 -DNRF52_PAN_53 -DNRF52_PAN_54 -DNR
                       F52_PAN_55 -DNRF52_PAN_58 -DNRF52_PAN_62 -DNRF52_PAN_63 
                       -DNRF52_PAN_64 -DS132 -DNRF_LOG_USES_UART=1 -DNRF52 -DSO
                       FTDEVICE_PRESENT -DCONFIG_NFCT_PINS_AS_GPIOS -DSWI_DISAB
                       LE0 --omf_browse=.\output\nrf_delay.crf Drivers\delay\nr
                       f_delay.c]
    3 00000000                 THUMB
    4 00000000                 REQUIRE8
    5 00000000                 PRESERVE8
    6 00000000         
    7 00000000                 AREA             ||i.nrf_delay_ms||, CODE, READO
NLY, ALIGN=1
    8 00000000         
    9 00000000         nrf_delay_ms
                               PROC
   10 00000000 B501            PUSH             {r0,lr}
   11 00000002 E006            B                |L0.18|
   12 00000004         |L0.4|
   13 00000004 9800            LDR              r0,[sp,#0]
   14 00000006 1E40            SUBS             r0,r0,#1
   15 00000008 9000            STR              r0,[sp,#0]
   16 0000000A F240 30E7       MOV              r0,#0x3e7
   17 0000000E F7FF FFFE       BL               __asm___11_nrf_delay_c_532987f3
__nrf_delay_us
   18 00000012         |L0.18|
   19 00000012 9800            LDR              r0,[sp,#0]
   20 00000014 2800            CMP              r0,#0
   21 00000016 D1F5            BNE              |L0.4|
   22 00000018 BD08            POP              {r3,pc}
   23 0000001A                 ENDP
   24 0000001A         
   25 0000001A         
   26 0000001A                 AREA             ||.arm_vfe_header||, DATA, READ



ARM Macro Assembler    Page 2 


ONLY, NOALLOC, ALIGN=2
   27 00000000         
   28 00000000 00000000        DCD              0x00000000
   29 00000004         
   30 00000004         ;*** Start embedded assembler ***
   31 00000004         
   32 00000004         #line   1                "Drivers\\delay\\nrf_delay.c"
    1 00000004                 AREA             ||.rev16_text||, CODE
    2 00000000                 THUMB
    3 00000000                 EXPORT           |__asm___11_nrf_delay_c_532987f
3____REV16|
    4 00000000         #line   492              "C:\\Users\\Administrator\\AppD
ata\\Local\\Arm\\Packs\\ARM\\CMSIS\\5.6.0\\CMSIS\\Core\\Include\\cmsis_armcc.h"
  492 00000000         |__asm___11_nrf_delay_c_532987f3____REV16|
                               PROC
  493 00000000         #line   493
  493 00000000         
  494 00000000 BA40            rev16            r0, r0
  495 00000002 4770            bx               lr
  496 00000004                 ENDP
  497 00000004                 AREA             ||.revsh_text||, CODE
  498 00000000                 THUMB
  499 00000000                 EXPORT           |__asm___11_nrf_delay_c_532987f
3____REVSH|
  500 00000000         #line   507
  507 00000000         |__asm___11_nrf_delay_c_532987f3____REVSH|
                               PROC
  508 00000000         #line   508
  508 00000000         
  509 00000000 BAC0            revsh            r0, r0
  510 00000002 4770            bx               lr
  511 00000004                 ENDP
  512 00000004                 AREA             ||.rrx_text||, CODE
  513 00000000                 THUMB
  514 00000000                 EXPORT           |__asm___11_nrf_delay_c_532987f
3____RRX|
  515 00000000         #line   694
  694 00000000         |__asm___11_nrf_delay_c_532987f3____RRX|
                               PROC
  695 00000000         #line   695
  695 00000000         
  696 00000000 EA4F 0030       rrx              r0, r0
  697 00000004 4770            bx               lr
  698 00000006                 ENDP
  699 00000006                 AREA             ||.emb_text||, CODE
  700 00000000                 THUMB
  701 00000000                 EXPORT           |__asm___11_nrf_delay_c_532987f
3__nrf_delay_us|
  702 00000000         #line   16               "Drivers\\delay\\nrf_delay.h"
   16 00000000         |__asm___11_nrf_delay_c_532987f3__nrf_delay_us|
                               PROC
   17 00000000         #line   17
   17 00000000         
   18 00000000         loop
   19 00000000 1E40            SUBS             R0, R0, #1
   20 00000002 BF00            NOP
   21 00000004 BF00            NOP
   22 00000006 BF00            NOP
   23 00000008 BF00            NOP



ARM Macro Assembler    Page 3 


   24 0000000A BF00            NOP
   25 0000000C BF00            NOP
   26 0000000E BF00            NOP
   27 00000010 BF00            NOP
   28 00000012 BF00            NOP
   29 00000014 BF00            NOP
   30 00000016 BF00            NOP
   31 00000018 BF00            NOP
   32 0000001A         
   33 0000001A BF00            NOP
   34 0000001C BF00            NOP
   35 0000001E BF00            NOP
   36 00000020 BF00            NOP
   37 00000022 BF00            NOP
   38 00000024 BF00            NOP
   39 00000026 BF00            NOP
   40 00000028 BF00            NOP
   41 0000002A BF00            NOP
   42 0000002C BF00            NOP
   43 0000002E BF00            NOP
   44 00000030 BF00            NOP
   45 00000032 BF00            NOP
   46 00000034 BF00            NOP
   47 00000036 BF00            NOP
   48 00000038 BF00            NOP
   49 0000003A BF00            NOP
   50 0000003C BF00            NOP
   51 0000003E BF00            NOP
   52 00000040 BF00            NOP
   53 00000042 BF00            NOP
   54 00000044 BF00            NOP
   55 00000046 BF00            NOP
   56 00000048 BF00            NOP
   57 0000004A BF00            NOP
   58 0000004C BF00            NOP
   59 0000004E BF00            NOP
   60 00000050 BF00            NOP
   61 00000052 BF00            NOP
   62 00000054 BF00            NOP
   63 00000056 BF00            NOP
   64 00000058 BF00            NOP
   65 0000005A BF00            NOP
   66 0000005C BF00            NOP
   67 0000005E BF00            NOP
   68 00000060 BF00            NOP
   69 00000062 BF00            NOP
   70 00000064 BF00            NOP
   71 00000066 BF00            NOP
   72 00000068 BF00            NOP
   73 0000006A BF00            NOP
   74 0000006C BF00            NOP
   75 0000006E BF00            NOP
   76 00000070 BF00            NOP
   77 00000072         
   78 00000072 D1C5            BNE              loop
   79 00000074 4770            BX               LR
   80 00000076                 ENDP
   81 00000076         
   82 00000076         ;*** End   embedded assembler ***



ARM Macro Assembler    Page 4 


   83 00000076         
   84 00000076                 EXPORT           nrf_delay_ms [CODE]
   85 00000076         
   86 00000076                 IMPORT           ||Lib$$Request$$armlib|| [CODE,
WEAK]
   87 00000076         
   88 00000076                 ATTR             FILESCOPE
   89 00000076                 ATTR             SETVALUE Tag_ABI_PCS_wchar_t,2
   90 00000076                 ATTR             SETVALUE Tag_ABI_enum_size,1
   91 00000076                 ATTR             SETVALUE Tag_ABI_optimization_g
oals,6
   92 00000076                 ATTR             SETSTRING Tag_conformance,"2.09
"
   93 00000076                 ATTR             SETVALUE AV,18,1
   94 00000076         
   95 00000076                 ASSERT           {ENDIAN} = "little"
   96 00000076                 ASSERT           {INTER} = {TRUE}
   97 00000076                 ASSERT           {ROPI} = {FALSE}
   98 00000076                 ASSERT           {RWPI} = {FALSE}
   99 00000076                 ASSERT           {IEEE_FULL} = {FALSE}
  100 00000076                 ASSERT           {IEEE_PART} = {FALSE}
  101 00000076                 ASSERT           {IEEE_JAVA} = {FALSE}
  102 00000076                 END
Command Line: --debug --xref --diag_suppress=9931 --cpu=Cortex-M4.fp.sp --apcs=
interwork -o.\output\nrf_delay.o -I.\RTE\_WIFI -IC:\Users\Administrator\AppData
\Local\Arm\Packs\ARM\CMSIS\5.6.0\CMSIS\Core\Include -IC:\Users\Administrator\Ap
pData\Local\Arm\Packs\NordicSemiconductor\nRF_DeviceFamilyPack\8.5.0\Device\Inc
lude --predefine="__MICROLIB SETA 1" --predefine="__UVISION_VERSION SETA 529" -
-predefine="_RTE_ SETA 1" --predefine="NRF52 SETA 1" --predefine="BSP_DEFINES_O
NLY SETA 1" --predefine="BOARD_PCA10040 SETA 1" --predefine="NRF52_PAN_12 SETA 
1" --predefine="NRF52_PAN_15 SETA 1" --predefine="NRF52_PAN_20 SETA 1" --predef
ine="NRF52_PAN_30 SETA 1" --predefine="NRF52_PAN_31 SETA 1" --predefine="NRF52_
PAN_36 SETA 1" --predefine="NRF52_PAN_51 SETA 1" --predefine="NRF52_PAN_53 SETA
 1" --predefine="NRF52_PAN_54 SETA 1" --predefine="NRF52_PAN_55 SETA 1" --prede
fine="NRF52_PAN_58 SETA 1" --predefine="NRF52_PAN_62 SETA 1" --predefine="NRF52
_PAN_63 SETA 1" --predefine="NRF52_PAN_64 SETA 1" --predefine="NRF52 SETA 1" --
list=.\listings\nrf_delay.lst .\output\nrf_delay.s



ARM Macro Assembler    Page 1 Alphabetic symbol ordering
Relocatable symbols

L0.18 00000012

Symbol: L0.18
   Definitions
      At line 18 in file .\output\nrf_delay.s
   Uses
      At line 11 in file .\output\nrf_delay.s
Comment: L0.18 used once
L0.4 00000004

Symbol: L0.4
   Definitions
      At line 12 in file .\output\nrf_delay.s
   Uses
      At line 21 in file .\output\nrf_delay.s
Comment: L0.4 used once
nrf_delay_ms 00000000

Symbol: nrf_delay_ms
   Definitions
      At line 9 in file .\output\nrf_delay.s
   Uses
      At line 84 in file Drivers\\delay\\nrf_delay.h
Comment: nrf_delay_ms used once
|i.nrf_delay_ms| 00000000

Symbol: |i.nrf_delay_ms|
   Definitions
      At line 7 in file .\output\nrf_delay.s
   Uses
      None
Comment: |i.nrf_delay_ms| unused
4 symbols



ARM Macro Assembler    Page 1 Alphabetic symbol ordering
Relocatable symbols

|.arm_vfe_header| 00000000

Symbol: |.arm_vfe_header|
   Definitions
      At line 26 in file .\output\nrf_delay.s
   Uses
      None
Comment: |.arm_vfe_header| unused
1 symbol



ARM Macro Assembler    Page 1 Alphabetic symbol ordering
Relocatable symbols

__asm___11_nrf_delay_c_532987f3____REV16 00000000

Symbol: __asm___11_nrf_delay_c_532987f3____REV16
   Definitions
      At line 492 in file C:\\Users\\Administrator\\AppData\\Local\\Arm\\Packs\
\ARM\\CMSIS\\5.6.0\\CMSIS\\Core\\Include\\cmsis_armcc.h
   Uses
      At line 3 in file Drivers\\delay\\nrf_delay.c
Comment: __asm___11_nrf_delay_c_532987f3____REV16 used once
|.rev16_text| 00000000

Symbol: |.rev16_text|
   Definitions
      At line 1 in file Drivers\\delay\\nrf_delay.c
   Uses
      None
Comment: |.rev16_text| unused
2 symbols



ARM Macro Assembler    Page 1 Alphabetic symbol ordering
Relocatable symbols

__asm___11_nrf_delay_c_532987f3____REVSH 00000000

Symbol: __asm___11_nrf_delay_c_532987f3____REVSH
   Definitions
      At line 507 in file C:\\Users\\Administrator\\AppData\\Local\\Arm\\Packs\
\ARM\\CMSIS\\5.6.0\\CMSIS\\Core\\Include\\cmsis_armcc.h
   Uses
      At line 499 in file C:\\Users\\Administrator\\AppData\\Local\\Arm\\Packs\
\ARM\\CMSIS\\5.6.0\\CMSIS\\Core\\Include\\cmsis_armcc.h
Comment: __asm___11_nrf_delay_c_532987f3____REVSH used once
|.revsh_text| 00000000

Symbol: |.revsh_text|
   Definitions
      At line 497 in file C:\\Users\\Administrator\\AppData\\Local\\Arm\\Packs\
\ARM\\CMSIS\\5.6.0\\CMSIS\\Core\\Include\\cmsis_armcc.h
   Uses
      None
Comment: |.revsh_text| unused
2 symbols



ARM Macro Assembler    Page 1 Alphabetic symbol ordering
Relocatable symbols

__asm___11_nrf_delay_c_532987f3____RRX 00000000

Symbol: __asm___11_nrf_delay_c_532987f3____RRX
   Definitions
      At line 694 in file C:\\Users\\Administrator\\AppData\\Local\\Arm\\Packs\
\ARM\\CMSIS\\5.6.0\\CMSIS\\Core\\Include\\cmsis_armcc.h
   Uses
      At line 514 in file C:\\Users\\Administrator\\AppData\\Local\\Arm\\Packs\
\ARM\\CMSIS\\5.6.0\\CMSIS\\Core\\Include\\cmsis_armcc.h
Comment: __asm___11_nrf_delay_c_532987f3____RRX used once
|.rrx_text| 00000000

Symbol: |.rrx_text|
   Definitions
      At line 512 in file C:\\Users\\Administrator\\AppData\\Local\\Arm\\Packs\
\ARM\\CMSIS\\5.6.0\\CMSIS\\Core\\Include\\cmsis_armcc.h
   Uses
      None
Comment: |.rrx_text| unused
2 symbols



ARM Macro Assembler    Page 1 Alphabetic symbol ordering
Relocatable symbols

__asm___11_nrf_delay_c_532987f3__nrf_delay_us 00000000

Symbol: __asm___11_nrf_delay_c_532987f3__nrf_delay_us
   Definitions
      At line 16 in file Drivers\\delay\\nrf_delay.h
   Uses
      At line 17 in file .\output\nrf_delay.s
      At line 701 in file C:\\Users\\Administrator\\AppData\\Local\\Arm\\Packs\
\ARM\\CMSIS\\5.6.0\\CMSIS\\Core\\Include\\cmsis_armcc.h

loop 00000000

Symbol: loop
   Definitions
      At line 18 in file Drivers\\delay\\nrf_delay.h
   Uses
      At line 78 in file Drivers\\delay\\nrf_delay.h
Comment: loop used once
|.emb_text| 00000000

Symbol: |.emb_text|
   Definitions
      At line 699 in file C:\\Users\\Administrator\\AppData\\Local\\Arm\\Packs\
\ARM\\CMSIS\\5.6.0\\CMSIS\\Core\\Include\\cmsis_armcc.h
   Uses
      None
Comment: |.emb_text| unused
3 symbols



ARM Macro Assembler    Page 1 Alphabetic symbol ordering
External symbols

|Lib$$Request$$armlib| 00000000

Symbol: |Lib$$Request$$armlib|
   Definitions
      At line 86 in file Drivers\\delay\\nrf_delay.h
   Uses
      None
Comment: |Lib$$Request$$armlib| unused
1 symbol
366 symbols in table
